; ModuleID = '22/48.c'
source_filename = "22/48.c"
target datalayout = "e-m:e-p270:32:32-p271:32:32-p272:64:64-i64:64-f80:128-n8:16:32:64-S128"
target triple = "x86_64-pc-linux-gnu"

@.str = private unnamed_addr constant [3 x i8] c"%s\00", align 1
@.str.1 = private unnamed_addr constant [3 x i8] c"No\00", align 1
@.str.2 = private unnamed_addr constant [3 x i8] c"%d\00", align 1

; Function Attrs: noinline nounwind uwtable
define dso_local void @main() #0 {
  %1 = alloca i32, align 4
  %2 = alloca i32, align 4
  %3 = alloca i32, align 4
  %4 = alloca i32, align 4
  %5 = alloca i32, align 4
  %6 = alloca [300 x i32], align 16
  %7 = alloca [300 x i8], align 16
  store i32 0, i32* %4, align 4
  store i32 0, i32* %5, align 4
  %8 = getelementptr inbounds [300 x i8], [300 x i8]* %7, i64 0, i64 0
  %9 = call i32 (i8*, ...) @__isoc99_scanf(i8* getelementptr inbounds ([3 x i8], [3 x i8]* @.str, i64 0, i64 0), i8* %8)
  %10 = getelementptr inbounds [300 x i8], [300 x i8]* %7, i64 0, i64 0
  %11 = call i64 @strlen(i8* %10) #3
  %12 = trunc i64 %11 to i32
  store i32 %12, i32* %1, align 4
  store i32 0, i32* %2, align 4
  br label %13

13:                                               ; preds = %51, %0
  %14 = load i32, i32* %2, align 4
  %15 = load i32, i32* %1, align 4
  %16 = icmp slt i32 %14, %15
  br i1 %16, label %17, label %54

17:                                               ; preds = %13
  %18 = load i32, i32* %2, align 4
  %19 = sext i32 %18 to i64
  %20 = getelementptr inbounds [300 x i8], [300 x i8]* %7, i64 0, i64 %19
  %21 = load i8, i8* %20, align 1
  %22 = sext i8 %21 to i32
  %23 = icmp eq i32 %22, 44
  br i1 %23, label %34, label %24

24:                                               ; preds = %17
  %25 = load i32, i32* %5, align 4
  %26 = mul nsw i32 %25, 10
  %27 = load i32, i32* %2, align 4
  %28 = sext i32 %27 to i64
  %29 = getelementptr inbounds [300 x i8], [300 x i8]* %7, i64 0, i64 %28
  %30 = load i8, i8* %29, align 1
  %31 = sext i8 %30 to i32
  %32 = add nsw i32 %26, %31
  %33 = sub nsw i32 %32, 48
  store i32 %33, i32* %5, align 4
  br label %50

34:                                               ; preds = %17
  %35 = load i32, i32* %2, align 4
  %36 = sub nsw i32 %35, 1
  %37 = sext i32 %36 to i64
  %38 = getelementptr inbounds [300 x i8], [300 x i8]* %7, i64 0, i64 %37
  %39 = load i8, i8* %38, align 1
  %40 = sext i8 %39 to i32
  %41 = icmp eq i32 %40, 44
  br i1 %41, label %49, label %42

42:                                               ; preds = %34
  %43 = load i32, i32* %5, align 4
  %44 = load i32, i32* %4, align 4
  %45 = sext i32 %44 to i64
  %46 = getelementptr inbounds [300 x i32], [300 x i32]* %6, i64 0, i64 %45
  store i32 %43, i32* %46, align 4
  %47 = load i32, i32* %4, align 4
  %48 = add nsw i32 %47, 1
  store i32 %48, i32* %4, align 4
  store i32 0, i32* %5, align 4
  br label %49

49:                                               ; preds = %42, %34
  br label %50

50:                                               ; preds = %49, %24
  br label %51

51:                                               ; preds = %50
  %52 = load i32, i32* %2, align 4
  %53 = add nsw i32 %52, 1
  store i32 %53, i32* %2, align 4
  br label %13

54:                                               ; preds = %13
  %55 = load i32, i32* %5, align 4
  %56 = load i32, i32* %4, align 4
  %57 = sext i32 %56 to i64
  %58 = getelementptr inbounds [300 x i32], [300 x i32]* %6, i64 0, i64 %57
  store i32 %55, i32* %58, align 4
  %59 = load i32, i32* %4, align 4
  %60 = add nsw i32 %59, 1
  store i32 %60, i32* %4, align 4
  %61 = load i32, i32* %4, align 4
  %62 = sext i32 %61 to i64
  %63 = getelementptr inbounds [300 x i32], [300 x i32]* %6, i64 0, i64 %62
  store i32 0, i32* %63, align 4
  store i32 0, i32* %2, align 4
  br label %64

64:                                               ; preds = %106, %54
  %65 = load i32, i32* %2, align 4
  %66 = load i32, i32* %4, align 4
  %67 = icmp slt i32 %65, %66
  br i1 %67, label %68, label %109

68:                                               ; preds = %64
  %69 = load i32, i32* %2, align 4
  %70 = add nsw i32 %69, 1
  store i32 %70, i32* %3, align 4
  br label %71

71:                                               ; preds = %102, %68
  %72 = load i32, i32* %3, align 4
  %73 = load i32, i32* %4, align 4
  %74 = icmp slt i32 %72, %73
  br i1 %74, label %75, label %105

75:                                               ; preds = %71
  %76 = load i32, i32* %3, align 4
  %77 = sext i32 %76 to i64
  %78 = getelementptr inbounds [300 x i32], [300 x i32]* %6, i64 0, i64 %77
  %79 = load i32, i32* %78, align 4
  %80 = load i32, i32* %2, align 4
  %81 = sext i32 %80 to i64
  %82 = getelementptr inbounds [300 x i32], [300 x i32]* %6, i64 0, i64 %81
  %83 = load i32, i32* %82, align 4
  %84 = icmp sgt i32 %79, %83
  br i1 %84, label %85, label %101

85:                                               ; preds = %75
  %86 = load i32, i32* %2, align 4
  %87 = sext i32 %86 to i64
  %88 = getelementptr inbounds [300 x i32], [300 x i32]* %6, i64 0, i64 %87
  %89 = load i32, i32* %88, align 4
  store i32 %89, i32* %5, align 4
  %90 = load i32, i32* %3, align 4
  %91 = sext i32 %90 to i64
  %92 = getelementptr inbounds [300 x i32], [300 x i32]* %6, i64 0, i64 %91
  %93 = load i32, i32* %92, align 4
  %94 = load i32, i32* %2, align 4
  %95 = sext i32 %94 to i64
  %96 = getelementptr inbounds [300 x i32], [300 x i32]* %6, i64 0, i64 %95
  store i32 %93, i32* %96, align 4
  %97 = load i32, i32* %5, align 4
  %98 = load i32, i32* %3, align 4
  %99 = sext i32 %98 to i64
  %100 = getelementptr inbounds [300 x i32], [300 x i32]* %6, i64 0, i64 %99
  store i32 %97, i32* %100, align 4
  br label %101

101:                                              ; preds = %85, %75
  br label %102

102:                                              ; preds = %101
  %103 = load i32, i32* %3, align 4
  %104 = add nsw i32 %103, 1
  store i32 %104, i32* %3, align 4
  br label %71

105:                                              ; preds = %71
  br label %106

106:                                              ; preds = %105
  %107 = load i32, i32* %2, align 4
  %108 = add nsw i32 %107, 1
  store i32 %108, i32* %2, align 4
  br label %64

109:                                              ; preds = %64
  %110 = load i32, i32* %4, align 4
  %111 = icmp eq i32 %110, 1
  br i1 %111, label %112, label %114

112:                                              ; preds = %109
  %113 = call i32 (i8*, ...) @printf(i8* getelementptr inbounds ([3 x i8], [3 x i8]* @.str.1, i64 0, i64 0))
  br label %147

114:                                              ; preds = %109
  store i32 1, i32* %2, align 4
  br label %115

115:                                              ; preds = %137, %114
  %116 = load i32, i32* %2, align 4
  %117 = load i32, i32* %4, align 4
  %118 = icmp slt i32 %116, %117
  br i1 %118, label %119, label %140

119:                                              ; preds = %115
  %120 = load i32, i32* %2, align 4
  %121 = sub nsw i32 %120, 1
  %122 = sext i32 %121 to i64
  %123 = getelementptr inbounds [300 x i32], [300 x i32]* %6, i64 0, i64 %122
  %124 = load i32, i32* %123, align 4
  %125 = load i32, i32* %2, align 4
  %126 = sext i32 %125 to i64
  %127 = getelementptr inbounds [300 x i32], [300 x i32]* %6, i64 0, i64 %126
  %128 = load i32, i32* %127, align 4
  %129 = icmp sgt i32 %124, %128
  br i1 %129, label %130, label %136

130:                                              ; preds = %119
  %131 = load i32, i32* %2, align 4
  %132 = sext i32 %131 to i64
  %133 = getelementptr inbounds [300 x i32], [300 x i32]* %6, i64 0, i64 %132
  %134 = load i32, i32* %133, align 4
  %135 = call i32 (i8*, ...) @printf(i8* getelementptr inbounds ([3 x i8], [3 x i8]* @.str.2, i64 0, i64 0), i32 %134)
  br label %140

136:                                              ; preds = %119
  br label %137

137:                                              ; preds = %136
  %138 = load i32, i32* %2, align 4
  %139 = add nsw i32 %138, 1
  store i32 %139, i32* %2, align 4
  br label %115

140:                                              ; preds = %130, %115
  %141 = load i32, i32* %2, align 4
  %142 = load i32, i32* %4, align 4
  %143 = icmp eq i32 %141, %142
  br i1 %143, label %144, label %146

144:                                              ; preds = %140
  %145 = call i32 (i8*, ...) @printf(i8* getelementptr inbounds ([3 x i8], [3 x i8]* @.str.1, i64 0, i64 0))
  br label %146

146:                                              ; preds = %144, %140
  br label %147

147:                                              ; preds = %146, %112
  ret void
}

declare dso_local i32 @__isoc99_scanf(i8*, ...) #1

; Function Attrs: nounwind readonly
declare dso_local i64 @strlen(i8*) #2

declare dso_local i32 @printf(i8*, ...) #1


!llvm.module.flags = !{!0}
!llvm.ident = !{!1}

!0 = !{i32 1, !"wchar_size", i32 4}
!1 = !{!"clang version 10.0.0-4ubuntu1 "}
